target datalayout = "e-m:e-p270:32:32-p271:32:32-p272:64:64-i64:64-i128:128-f80:128-n8:16:32:64-S128"
target triple = "x86_64-unknown-linux-gnu"

%"class.google::protobuf::io::ZeroCopyInputStream" = type { ptr }
%"class.std::basic_string_view" = type { i64, ptr }
%"class.absl::lts_20230802::Cord::ChunkIterator" = type { %"class.std::basic_string_view", ptr, i64, %"class.absl::lts_20230802::cord_internal::CordRepBtreeReader" }
%"class.absl::lts_20230802::cord_internal::CordRepBtreeReader" = type { i64, %"class.absl::lts_20230802::cord_internal::CordRepBtreeNavigator" }
%"class.absl::lts_20230802::cord_internal::CordRepBtreeNavigator" = type { i32, [12 x i8], [12 x ptr] }
%"class.google::protobuf::io::CordInputStream" = type { %"class.google::protobuf::io::ZeroCopyInputStream", %"class.absl::lts_20230802::Cord::CharIterator", i64, i64, ptr, i64, i64 }
%"class.absl::lts_20230802::Cord::CharIterator" = type { %"class.absl::lts_20230802::Cord::ChunkIterator" }

; Function Attrs: mustprogress nounwind uwtable
define linkonce_odr hidden { i64, ptr } @_ZNK4absl12lts_202308024Cord13ChunkIteratordeEv(ptr noundef nonnull align 8 dereferenceable(152) %this) #4 comdat align 2 {
entry:
  %retval = alloca %"class.std::basic_string_view", align 8
  %this.addr = alloca ptr, align 8
  store ptr %this, ptr %this.addr, align 8
  %this1 = load ptr, ptr %this.addr, align 8
  %current_chunk_ = getelementptr inbounds %"class.absl::lts_20230802::Cord::ChunkIterator", ptr %this1, i32 0, i32 0
  call void @llvm.memcpy.p0.p0.i64(ptr align 8 %retval, ptr align 8 %current_chunk_, i64 16, i1 false)
  %0 = load { i64, ptr }, ptr %retval, align 8
  ret { i64, ptr } %0
}

; Function Attrs: mustprogress nounwind uwtable
define linkonce_odr hidden noundef i64 @_ZNKSt17basic_string_viewIcSt11char_traitsIcEE4sizeEv(ptr noundef nonnull align 8 dereferenceable(16) %this) #4 comdat align 2 {
entry:
  %this.addr = alloca ptr, align 8
  store ptr %this, ptr %this.addr, align 8
  %this1 = load ptr, ptr %this.addr, align 8
  %_M_len = getelementptr inbounds %"class.std::basic_string_view", ptr %this1, i32 0, i32 0
  %0 = load i64, ptr %_M_len, align 8
  ret i64 %0
}

; Function Attrs: mustprogress nounwind uwtable
define linkonce_odr hidden noundef ptr @_ZNKSt17basic_string_viewIcSt11char_traitsIcEE4dataEv(ptr noundef nonnull align 8 dereferenceable(16) %this) #4 comdat align 2 {
entry:
  %this.addr = alloca ptr, align 8
  store ptr %this, ptr %this.addr, align 8
  %this1 = load ptr, ptr %this.addr, align 8
  %_M_str = getelementptr inbounds %"class.std::basic_string_view", ptr %this1, i32 0, i32 1
  %0 = load ptr, ptr %_M_str, align 8
  ret ptr %0
}

; Function Attrs: mustprogress nounwind uwtable
define linkonce_odr hidden { i64, ptr } @_ZN4absl12lts_202308024Cord14ChunkRemainingERKNS1_12CharIteratorE(ptr noundef nonnull align 8 dereferenceable(152) %it) #4 comdat align 2 {
entry:
  %retval = alloca %"class.std::basic_string_view", align 8
  %it.addr = alloca ptr, align 8
  store ptr %it, ptr %it.addr, align 8
  %0 = load ptr, ptr %it.addr, align 8
  %chunk_iterator_ = getelementptr inbounds %"class.absl::lts_20230802::Cord::CharIterator", ptr %0, i32 0, i32 0
  %call = call { i64, ptr } @_ZNK4absl12lts_202308024Cord13ChunkIteratordeEv(ptr noundef nonnull align 8 dereferenceable(152) %chunk_iterator_)
  %1 = getelementptr inbounds { i64, ptr }, ptr %retval, i32 0, i32 0
  %2 = extractvalue { i64, ptr } %call, 0
  store i64 %2, ptr %1, align 8
  %3 = getelementptr inbounds { i64, ptr }, ptr %retval, i32 0, i32 1
  %4 = extractvalue { i64, ptr } %call, 1
  store ptr %4, ptr %3, align 8
  %5 = load { i64, ptr }, ptr %retval, align 8
  ret { i64, ptr } %5
}

; Function Attrs: mustprogress uwtable
define noundef zeroext i1 @_ZN6google8protobuf2io15CordInputStream13LoadChunkDataEv(ptr noundef nonnull align 8 dereferenceable(200) %this) #5 align 2 {
entry:
  %retval = alloca i1, align 1
  %this.addr = alloca ptr, align 8
  %sv = alloca %"class.std::basic_string_view", align 8
  store ptr %this, ptr %this.addr, align 8
  %this1 = load ptr, ptr %this.addr, align 8
  %bytes_remaining_ = getelementptr inbounds %"class.google::protobuf::io::CordInputStream", ptr %this1, i32 0, i32 3
  %0 = load i64, ptr %bytes_remaining_, align 8
  %cmp = icmp ne i64 %0, 0
  br i1 %cmp, label %if.then, label %if.end

if.then:                                          ; preds = %entry
  %it_ = getelementptr inbounds %"class.google::protobuf::io::CordInputStream", ptr %this1, i32 0, i32 1
  %call = call { i64, ptr } @_ZN4absl12lts_202308024Cord14ChunkRemainingERKNS1_12CharIteratorE(ptr noundef nonnull align 8 dereferenceable(152) %it_)
  %1 = getelementptr inbounds { i64, ptr }, ptr %sv, i32 0, i32 0
  %2 = extractvalue { i64, ptr } %call, 0
  store i64 %2, ptr %1, align 8
  %3 = getelementptr inbounds { i64, ptr }, ptr %sv, i32 0, i32 1
  %4 = extractvalue { i64, ptr } %call, 1
  store ptr %4, ptr %3, align 8
  %call2 = call noundef ptr @_ZNKSt17basic_string_viewIcSt11char_traitsIcEE4dataEv(ptr noundef nonnull align 8 dereferenceable(16) %sv) #3
  %data_ = getelementptr inbounds %"class.google::protobuf::io::CordInputStream", ptr %this1, i32 0, i32 4
  store ptr %call2, ptr %data_, align 8
  %call3 = call noundef i64 @_ZNKSt17basic_string_viewIcSt11char_traitsIcEE4sizeEv(ptr noundef nonnull align 8 dereferenceable(16) %sv) #3
  %available_ = getelementptr inbounds %"class.google::protobuf::io::CordInputStream", ptr %this1, i32 0, i32 6
  store i64 %call3, ptr %available_, align 8
  %size_ = getelementptr inbounds %"class.google::protobuf::io::CordInputStream", ptr %this1, i32 0, i32 5
  store i64 %call3, ptr %size_, align 8
  store i1 true, ptr %retval, align 1
  br label %return

if.end:                                           ; preds = %entry
  %available_4 = getelementptr inbounds %"class.google::protobuf::io::CordInputStream", ptr %this1, i32 0, i32 6
  store i64 0, ptr %available_4, align 8
  %size_5 = getelementptr inbounds %"class.google::protobuf::io::CordInputStream", ptr %this1, i32 0, i32 5
  store i64 0, ptr %size_5, align 8
  store i1 false, ptr %retval, align 1
  br label %return

return:                                           ; preds = %if.end, %if.then
  %5 = load i1, ptr %retval, align 1
  ret i1 %5
}