; Function Attrs: mustprogress nofree norecurse nosync nounwind willreturn memory(argmem: readwrite) uwtable
define noundef zeroext i1 @_ZN6google8protobuf2io15CordInputStream13LoadChunkDataEv(ptr nocapture noundef nonnull align 8 dereferenceable(200) %this) local_unnamed_addr #4 align 2 {
entry:
  %bytes_remaining_ = getelementptr inbounds i8, ptr %this, i64 168
  %0 = load i64, ptr %bytes_remaining_, align 8
  %cmp.not = icmp ne i64 %0, 0
  br i1 %cmp.not, label %if.then, label %return

if.then:                                          ; preds = %entry
  %it_ = getelementptr inbounds i8, ptr %this, i64 8
  %retval.sroa.0.0.copyload.i.i = load i64, ptr %it_, align 8
  %retval.sroa.2.0.current_chunk_.sroa_idx.i.i = getelementptr inbounds i8, ptr %this, i64 16
  %retval.sroa.2.0.copyload.i.i = load ptr, ptr %retval.sroa.2.0.current_chunk_.sroa_idx.i.i, align 8
  %data_ = getelementptr inbounds i8, ptr %this, i64 176
  store ptr %retval.sroa.2.0.copyload.i.i, ptr %data_, align 8
  br label %return

return:                                           ; preds = %entry, %if.then
  %.sink1 = phi i64 [ %retval.sroa.0.0.copyload.i.i, %if.then ], [ 0, %entry ]
  %1 = getelementptr inbounds i8, ptr %this, i64 192
  store i64 %.sink1, ptr %1, align 8
  %2 = getelementptr inbounds i8, ptr %this, i64 184
  store i64 %.sink1, ptr %2, align 8
  ret i1 %cmp.not
}